; Function Attrs: mustprogress uwtable
define void @_ZN3gmx30AnalysisDataDisplacementModuleC2Ev(ptr noundef nonnull align 8 dereferenceable(32) %0) unnamed_addr #1 align 2 personality ptr @__gxx_personality_v0 {
  tail call void @_ZN3gmx20AbstractAnalysisDataC2Ev(ptr noundef nonnull align 8 dereferenceable(16) %0)
  %2 = getelementptr inbounds i8, ptr %0, i64 16
  store ptr getelementptr inbounds inrange(-16, 88) ({ [13 x ptr], [12 x ptr] }, ptr @_ZTVN3gmx30AnalysisDataDisplacementModuleE, i64 0, i32 0, i64 2), ptr %0, align 8
  store ptr getelementptr inbounds inrange(-16, 80) ({ [13 x ptr], [12 x ptr] }, ptr @_ZTVN3gmx30AnalysisDataDisplacementModuleE, i64 0, i32 1, i64 2), ptr %2, align 8
  %3 = getelementptr inbounds i8, ptr %0, i64 24
  %4 = invoke noalias noundef nonnull dereferenceable(80) ptr @_Znwm(i64 noundef 80) #25
          to label %5 unwind label %8

5:                                                ; preds = %1
  invoke void @_ZN3gmx30AnalysisDataDisplacementModule4ImplC1Ev(ptr noundef nonnull align 8 dereferenceable(80) %4)
          to label %6 unwind label %10

6:                                                ; preds = %5
  store ptr %4, ptr %3, align 8
  invoke void @_ZN3gmx20AbstractAnalysisData13setMultipointEb(ptr noundef nonnull align 8 dereferenceable(16) %0, i1 noundef zeroext true)
          to label %7 unwind label %12

7:                                                ; preds = %6
  ret void

8:                                                ; preds = %1
  %9 = landingpad { ptr, i32 }
          cleanup
  br label %15

10:                                               ; preds = %5
  %11 = landingpad { ptr, i32 }
          cleanup
  tail call void @_ZdlPv(ptr noundef nonnull %4) #26
  br label %15

12:                                               ; preds = %6
  %13 = landingpad { ptr, i32 }
          cleanup
  %14 = load ptr, ptr %3, align 8
  %.not.i = icmp eq ptr %14, null
  br i1 %.not.i, label %_ZNSt10unique_ptrIN3gmx30AnalysisDataDisplacementModule4ImplESt14default_deleteIS2_EED2Ev.exit, label %_ZNKSt14default_deleteIN3gmx30AnalysisDataDisplacementModule4ImplEEclEPS2_.exit.i

_ZNKSt14default_deleteIN3gmx30AnalysisDataDisplacementModule4ImplEEclEPS2_.exit.i: ; preds = %12
  tail call void @_ZN3gmx30AnalysisDataDisplacementModule4ImplD1Ev(ptr noundef nonnull align 8 dereferenceable(80) %14) #23
  tail call void @_ZdlPv(ptr noundef nonnull %14) #26
  br label %_ZNSt10unique_ptrIN3gmx30AnalysisDataDisplacementModule4ImplESt14default_deleteIS2_EED2Ev.exit

_ZNSt10unique_ptrIN3gmx30AnalysisDataDisplacementModule4ImplESt14default_deleteIS2_EED2Ev.exit: ; preds = %12, %_ZNKSt14default_deleteIN3gmx30AnalysisDataDisplacementModule4ImplEEclEPS2_.exit.i
  store ptr null, ptr %3, align 8
  br label %15

15:                                               ; preds = %_ZNSt10unique_ptrIN3gmx30AnalysisDataDisplacementModule4ImplESt14default_deleteIS2_EED2Ev.exit, %10, %8
  %.pn = phi { ptr, i32 } [ %13, %_ZNSt10unique_ptrIN3gmx30AnalysisDataDisplacementModule4ImplESt14default_deleteIS2_EED2Ev.exit ], [ %11, %10 ], [ %9, %8 ]
  tail call void @_ZN3gmx20AbstractAnalysisDataD2Ev(ptr noundef nonnull align 8 dereferenceable(16) %0) #23
  resume { ptr, i32 } %.pn
}